#include <math.h>
#include <stdio.h>
#include <stdlib.h>
#include <string.h>

void main()
{
	int a[9000],n,i=0,max,sec;
	scanf("%d%c",&a[i],&a[i+1]);
	while(a[i+1]==',')
	{
		i++;
	scanf("%d%c",&a[i],&a[i+1]);
	}
	n=i;
	max=a[0];
	for(i=0;i<=n;i++)
	{if(a[i]>max)
	max=a[i];}
	sec=-1;
	for(i=0;i<=n;i++)
	{if(a[i]>sec&&a[i]<max)
	sec=a[i];}
	if(sec==max||sec==-1)
		printf("No");
	else
		printf("%d",sec);
}