; ModuleID = '22/396.c'
source_filename = "22/396.c"
target datalayout = "e-m:e-p270:32:32-p271:32:32-p272:64:64-i64:64-f80:128-n8:16:32:64-S128"
target triple = "x86_64-pc-linux-gnu"

@.str = private unnamed_addr constant [5 x i8] c"%d%c\00", align 1
@.str.1 = private unnamed_addr constant [3 x i8] c"No\00", align 1
@.str.2 = private unnamed_addr constant [3 x i8] c"%d\00", align 1

; Function Attrs: noinline nounwind uwtable
define dso_local void @main() #0 {
  %1 = alloca [9000 x i32], align 16
  %2 = alloca i32, align 4
  %3 = alloca i32, align 4
  %4 = alloca i32, align 4
  %5 = alloca i32, align 4
  store i32 0, i32* %3, align 4
  %6 = load i32, i32* %3, align 4
  %7 = sext i32 %6 to i64
  %8 = getelementptr inbounds [9000 x i32], [9000 x i32]* %1, i64 0, i64 %7
  %9 = load i32, i32* %3, align 4
  %10 = add nsw i32 %9, 1
  %11 = sext i32 %10 to i64
  %12 = getelementptr inbounds [9000 x i32], [9000 x i32]* %1, i64 0, i64 %11
  %13 = call i32 (i8*, ...) @__isoc99_scanf(i8* getelementptr inbounds ([5 x i8], [5 x i8]* @.str, i64 0, i64 0), i32* %8, i32* %12)
  br label %14

14:                                               ; preds = %21, %0
  %15 = load i32, i32* %3, align 4
  %16 = add nsw i32 %15, 1
  %17 = sext i32 %16 to i64
  %18 = getelementptr inbounds [9000 x i32], [9000 x i32]* %1, i64 0, i64 %17
  %19 = load i32, i32* %18, align 4
  %20 = icmp eq i32 %19, 44
  br i1 %20, label %21, label %32

21:                                               ; preds = %14
  %22 = load i32, i32* %3, align 4
  %23 = add nsw i32 %22, 1
  store i32 %23, i32* %3, align 4
  %24 = load i32, i32* %3, align 4
  %25 = sext i32 %24 to i64
  %26 = getelementptr inbounds [9000 x i32], [9000 x i32]* %1, i64 0, i64 %25
  %27 = load i32, i32* %3, align 4
  %28 = add nsw i32 %27, 1
  %29 = sext i32 %28 to i64
  %30 = getelementptr inbounds [9000 x i32], [9000 x i32]* %1, i64 0, i64 %29
  %31 = call i32 (i8*, ...) @__isoc99_scanf(i8* getelementptr inbounds ([5 x i8], [5 x i8]* @.str, i64 0, i64 0), i32* %26, i32* %30)
  br label %14

32:                                               ; preds = %14
  %33 = load i32, i32* %3, align 4
  store i32 %33, i32* %2, align 4
  %34 = getelementptr inbounds [9000 x i32], [9000 x i32]* %1, i64 0, i64 0
  %35 = load i32, i32* %34, align 16
  store i32 %35, i32* %4, align 4
  store i32 0, i32* %3, align 4
  br label %36

36:                                               ; preds = %53, %32
  %37 = load i32, i32* %3, align 4
  %38 = load i32, i32* %2, align 4
  %39 = icmp sle i32 %37, %38
  br i1 %39, label %40, label %56

40:                                               ; preds = %36
  %41 = load i32, i32* %3, align 4
  %42 = sext i32 %41 to i64
  %43 = getelementptr inbounds [9000 x i32], [9000 x i32]* %1, i64 0, i64 %42
  %44 = load i32, i32* %43, align 4
  %45 = load i32, i32* %4, align 4
  %46 = icmp sgt i32 %44, %45
  br i1 %46, label %47, label %52

47:                                               ; preds = %40
  %48 = load i32, i32* %3, align 4
  %49 = sext i32 %48 to i64
  %50 = getelementptr inbounds [9000 x i32], [9000 x i32]* %1, i64 0, i64 %49
  %51 = load i32, i32* %50, align 4
  store i32 %51, i32* %4, align 4
  br label %52

52:                                               ; preds = %47, %40
  br label %53

53:                                               ; preds = %52
  %54 = load i32, i32* %3, align 4
  %55 = add nsw i32 %54, 1
  store i32 %55, i32* %3, align 4
  br label %36

56:                                               ; preds = %36
  store i32 -1, i32* %5, align 4
  store i32 0, i32* %3, align 4
  br label %57

57:                                               ; preds = %81, %56
  %58 = load i32, i32* %3, align 4
  %59 = load i32, i32* %2, align 4
  %60 = icmp sle i32 %58, %59
  br i1 %60, label %61, label %84

61:                                               ; preds = %57
  %62 = load i32, i32* %3, align 4
  %63 = sext i32 %62 to i64
  %64 = getelementptr inbounds [9000 x i32], [9000 x i32]* %1, i64 0, i64 %63
  %65 = load i32, i32* %64, align 4
  %66 = load i32, i32* %5, align 4
  %67 = icmp sgt i32 %65, %66
  br i1 %67, label %68, label %80

68:                                               ; preds = %61
  %69 = load i32, i32* %3, align 4
  %70 = sext i32 %69 to i64
  %71 = getelementptr inbounds [9000 x i32], [9000 x i32]* %1, i64 0, i64 %70
  %72 = load i32, i32* %71, align 4
  %73 = load i32, i32* %4, align 4
  %74 = icmp slt i32 %72, %73
  br i1 %74, label %75, label %80

75:                                               ; preds = %68
  %76 = load i32, i32* %3, align 4
  %77 = sext i32 %76 to i64
  %78 = getelementptr inbounds [9000 x i32], [9000 x i32]* %1, i64 0, i64 %77
  %79 = load i32, i32* %78, align 4
  store i32 %79, i32* %5, align 4
  br label %80

80:                                               ; preds = %75, %68, %61
  br label %81

81:                                               ; preds = %80
  %82 = load i32, i32* %3, align 4
  %83 = add nsw i32 %82, 1
  store i32 %83, i32* %3, align 4
  br label %57

84:                                               ; preds = %57
  %85 = load i32, i32* %5, align 4
  %86 = load i32, i32* %4, align 4
  %87 = icmp eq i32 %85, %86
  br i1 %87, label %91, label %88

88:                                               ; preds = %84
  %89 = load i32, i32* %5, align 4
  %90 = icmp eq i32 %89, -1
  br i1 %90, label %91, label %93

91:                                               ; preds = %88, %84
  %92 = call i32 (i8*, ...) @printf(i8* getelementptr inbounds ([3 x i8], [3 x i8]* @.str.1, i64 0, i64 0))
  br label %96

93:                                               ; preds = %88
  %94 = load i32, i32* %5, align 4
  %95 = call i32 (i8*, ...) @printf(i8* getelementptr inbounds ([3 x i8], [3 x i8]* @.str.2, i64 0, i64 0), i32 %94)
  br label %96

96:                                               ; preds = %93, %91
  ret void
}

declare dso_local i32 @__isoc99_scanf(i8*, ...) #1

declare dso_local i32 @printf(i8*, ...) #1


!llvm.module.flags = !{!0}
!llvm.ident = !{!1}

!0 = !{i32 1, !"wchar_size", i32 4}
!1 = !{!"clang version 10.0.0-4ubuntu1 "}
